target datalayout = "e-m:e-p270:32:32-p271:32:32-p272:64:64-i64:64-i128:128-f80:128-n8:16:32:64-S128"
target triple = "x86_64-pc-linux-gnu"

%class.QPointer = type { %class.QWeakPointer }
%class.QWeakPointer = type { ptr, ptr }
%class.QString = type { %struct.QArrayDataPointer }
%struct.QArrayDataPointer = type { ptr, ptr, i64 }
%class.QVariant = type { %"struct.QVariant::Private" }
%"struct.QVariant::Private" = type { %union.anon, i64 }
%union.anon = type { ptr, [16 x i8] }
%class.QSharedPointer = type { ptr, ptr }
%struct.QLatin1Char = type { i8 }
%class.IOGraphDialog = type { %class.WiresharkDialog.base, ptr, ptr, %class.QPointer, ptr, %class.QList.5, %class.QString, ptr, ptr, i32, %struct.nstime_t, i8, ptr, %class.QPoint, %class.QMenu, ptr, i8, i8, i8, i8, i32, %class.QSharedPointer, %class.QSharedPointer.9 }
%class.WiresharkDialog.base = type <{ %class.GeometryStateDialog, ptr, i8, [7 x i8], %class.QString, %class.QList.1, i32, i8 }>
%class.GeometryStateDialog = type { %class.QDialog, %class.QString, ptr }
%class.QDialog = type { %class.QWidget }
%class.QWidget = type { %class.QObject, %class.QPaintDevice.base, ptr }
%class.QObject = type { ptr, %class.QScopedPointer }
%class.QScopedPointer = type { ptr }
%class.QPaintDevice.base = type <{ ptr, i16 }>
%class.QList.1 = type { %struct.QArrayDataPointer.4 }
%struct.QArrayDataPointer.4 = type { ptr, ptr, i64 }
%class.QList.5 = type { %struct.QArrayDataPointer.8 }
%struct.QArrayDataPointer.8 = type { ptr, ptr, i64 }
%struct.nstime_t = type { i64, i32 }
%class.QPoint = type { i32, i32 }
%class.QMenu = type { %class.QWidget }
%class.QSharedPointer.9 = type { ptr, ptr }
%class.Ui_IOGraphDialog = type { ptr, ptr, ptr, ptr, ptr, ptr, ptr, ptr, ptr, ptr, ptr, ptr, ptr, ptr, ptr, ptr, ptr, ptr, ptr, ptr, ptr, ptr, ptr, ptr, ptr, ptr, ptr, ptr, ptr, ptr, ptr, ptr, ptr, ptr, ptr, ptr, ptr, ptr, ptr, ptr, ptr, ptr, ptr, ptr, ptr, ptr }
%class.QCustomPlot = type <{ %class.QWidget, ptr, ptr, ptr, ptr, ptr, %class.QRect, double, ptr, i8, [7 x i8], %class.QList.10, %class.QList.14, %class.QList.18, %class.QList.22, %class.QFlags, %class.QFlags, %class.QFlags.26, i32, i8, [7 x i8], %class.QBrush, %class.QPixmap, %class.QPixmap, i8, [3 x i8], i32, ptr, %class.QFlags.29, i32, i32, [4 x i8], ptr, i8, [7 x i8], %class.QList.30, %class.QPoint, i8, [7 x i8], %class.QPointer.34, %class.QPointer.34, %class.QVariant, %class.QVariant, i8, i8, [6 x i8], double, double, i32, %class.QFlags, i8, [7 x i8] }>
%class.QRect = type { i32, i32, i32, i32 }
%class.QList.10 = type { %struct.QArrayDataPointer.13 }
%struct.QArrayDataPointer.13 = type { ptr, ptr, i64 }
%class.QList.14 = type { %struct.QArrayDataPointer.17 }
%struct.QArrayDataPointer.17 = type { ptr, ptr, i64 }
%class.QList.18 = type { %struct.QArrayDataPointer.21 }
%struct.QArrayDataPointer.21 = type { ptr, ptr, i64 }
%class.QList.22 = type { %struct.QArrayDataPointer.25 }
%struct.QArrayDataPointer.25 = type { ptr, ptr, i64 }
%class.QFlags.26 = type { i32 }
%class.QBrush = type { %"class.std::unique_ptr" }
%"class.std::unique_ptr" = type { %"struct.std::__uniq_ptr_data" }
%"struct.std::__uniq_ptr_data" = type { %"class.std::__uniq_ptr_impl" }
%"class.std::__uniq_ptr_impl" = type { %"class.std::tuple" }
%"class.std::tuple" = type { %"struct.std::_Tuple_impl" }
%"struct.std::_Tuple_impl" = type { %"struct.std::_Head_base.28" }
%"struct.std::_Head_base.28" = type { ptr }
%class.QPixmap = type { %class.QPaintDevice.base, %class.QExplicitlySharedDataPointer }
%class.QExplicitlySharedDataPointer = type { ptr }
%class.QFlags.29 = type { i32 }
%class.QList.30 = type { %struct.QArrayDataPointer.33 }
%struct.QArrayDataPointer.33 = type { ptr, ptr, i64 }
%class.QPointer.34 = type { %class.QWeakPointer }
%class.QFlags = type { i32 }
%class.QList = type { %struct.QArrayDataPointer.0 }
%struct.QArrayDataPointer.0 = type { ptr, ptr, i64 }
%class.QColor = type <{ i32, %"union.QColor::CT", [2 x i8] }>
%"union.QColor::CT" = type { %struct.anon }
%struct.anon = type { i16, i16, i16, i16, i16 }
%class.QPen = type { ptr }
%class.QCPLayerable.base = type <{ %class.QObject, i8, [7 x i8], ptr, %class.QPointer.34, ptr, i8 }>
%class.QCPRange = type { double, double }
%class.QCPAxis = type { %class.QCPLayerable.base, i32, ptr, i32, i32, %class.QFlags.35, %class.QFlags.35, %class.QPen, %class.QPen, %class.QString, %class.QFont, %class.QFont, %class.QColor, %class.QColor, i8, [7 x i8], %class.QFont, %class.QFont, %class.QColor, %class.QColor, i32, %struct.QLatin1Char, i8, i8, i8, %class.QPen, %class.QPen, %class.QPen, %class.QPen, %class.QCPRange, i8, i32, ptr, ptr, %class.QSharedPointer, %class.QList.41, %class.QList, %class.QList.41, i8, i32, i8, %class.QCPRange, %class.QFlags, %class.QFlags }
%class.QFlags.35 = type { i32 }
%class.QFont = type <{ %class.QExplicitlySharedDataPointer.36, i32, [4 x i8] }>
%class.QExplicitlySharedDataPointer.36 = type { ptr }
%class.QList.41 = type { %struct.QArrayDataPointer.44 }
%struct.QArrayDataPointer.44 = type { ptr, ptr, i64 }

; Function Attrs: mustprogress nounwind null_pointer_is_valid sspstrong uwtable
define linkonce_odr noundef double @_ZNK8QCPRange6centerEv(ptr noundef align 8 dereferenceable_or_null(16) %0) #7 comdat align 2 {
  %2 = alloca ptr, align 8
  store ptr %0, ptr %2, align 8
  %3 = load ptr, ptr %2, align 8
  %4 = getelementptr inbounds nuw %class.QCPRange, ptr %3, i32 0, i32 1
  %5 = load double, ptr %4, align 8
  %6 = getelementptr inbounds nuw %class.QCPRange, ptr %3, i32 0, i32 0
  %7 = load double, ptr %6, align 8
  %8 = fadd double %5, %7
  %9 = fmul double %8, 5.000000e-01
  ret double %9
}

; Function Attrs: mustprogress nounwind null_pointer_is_valid sspstrong uwtable
define linkonce_odr { double, double } @_ZNK7QCPAxis5rangeEv(ptr noundef align 8 dereferenceable_or_null(472) %0) #7 comdat align 2 {
  %2 = alloca %class.QCPRange, align 8
  %3 = alloca ptr, align 8
  store ptr %0, ptr %3, align 8
  %4 = load ptr, ptr %3, align 8
  %5 = getelementptr inbounds nuw %class.QCPAxis, ptr %4, i32 0, i32 29
  call void @llvm.memcpy.p0.p0.i64(ptr align 8 %2, ptr align 8 %5, i64 16, i1 false)
  %6 = load { double, double }, ptr %2, align 8
  ret { double, double } %6
}

; Function Attrs: mustprogress null_pointer_is_valid sspstrong uwtable
define void @_ZN13IOGraphDialog9zoomYAxisEb(ptr noundef align 8 dereferenceable_or_null(384) %0, i1 noundef zeroext %1) #3 align 2 {
  %3 = alloca ptr, align 8
  %4 = alloca i8, align 1
  %5 = alloca ptr, align 8
  %6 = alloca double, align 8
  %7 = alloca %class.QCPRange, align 8
  store ptr %0, ptr %3, align 8
  %8 = zext i1 %1 to i8
  store i8 %8, ptr %4, align 1
  %9 = load ptr, ptr %3, align 8
  call void @llvm.lifetime.start.p0(i64 8, ptr %5) #2
  %10 = getelementptr inbounds nuw %class.IOGraphDialog, ptr %9, i32 0, i32 1
  %11 = load ptr, ptr %10, align 8
  %12 = getelementptr inbounds nuw %class.Ui_IOGraphDialog, ptr %11, i32 0, i32 26
  %13 = load ptr, ptr %12, align 8
  store ptr %13, ptr %5, align 8
  call void @llvm.lifetime.start.p0(i64 8, ptr %6) #2
  %14 = load ptr, ptr %5, align 8
  %15 = call noundef ptr @_ZNK11QCustomPlot8axisRectEi(ptr noundef align 8 dereferenceable_or_null(513) %14, i32 noundef 0)
  %16 = call noundef double @_ZN11QCPAxisRect15rangeZoomFactorEN2Qt11OrientationE(ptr noundef align 8 dereferenceable_or_null(432) %15, i32 noundef 2)
  store double %16, ptr %6, align 8
  %17 = getelementptr inbounds nuw %class.IOGraphDialog, ptr %9, i32 0, i32 19
  store i8 0, ptr %17, align 1
  %18 = load i8, ptr %4, align 1, !range !6, !noundef !7
  %19 = trunc i8 %18 to i1
  br i1 %19, label %23, label %20

20:                                               ; preds = %2
  %21 = load double, ptr %6, align 8
  %22 = call double @pow(double noundef %21, double noundef -1.000000e+00) #2
  store double %22, ptr %6, align 8
  br label %23

23:                                               ; preds = %20, %2
  %24 = load ptr, ptr %5, align 8
  %25 = getelementptr inbounds nuw %class.QCustomPlot, ptr %24, i32 0, i32 2
  %26 = load ptr, ptr %25, align 8
  %27 = load double, ptr %6, align 8
  call void @llvm.lifetime.start.p0(i64 16, ptr %7) #2
  %28 = load ptr, ptr %5, align 8
  %29 = getelementptr inbounds nuw %class.QCustomPlot, ptr %28, i32 0, i32 2
  %30 = load ptr, ptr %29, align 8
  %31 = call { double, double } @_ZNK7QCPAxis5rangeEv(ptr noundef align 8 dereferenceable_or_null(472) %30)
  %32 = getelementptr inbounds nuw { double, double }, ptr %7, i32 0, i32 0
  %33 = extractvalue { double, double } %31, 0
  store double %33, ptr %32, align 8
  %34 = getelementptr inbounds nuw { double, double }, ptr %7, i32 0, i32 1
  %35 = extractvalue { double, double } %31, 1
  store double %35, ptr %34, align 8
  %36 = call noundef double @_ZNK8QCPRange6centerEv(ptr noundef align 8 dereferenceable_or_null(16) %7)
  call void @_ZN7QCPAxis10scaleRangeEdd(ptr noundef align 8 dereferenceable_or_null(472) %26, double noundef %27, double noundef %36)
  call void @llvm.lifetime.end.p0(i64 16, ptr %7) #2
  %37 = load ptr, ptr %5, align 8
  call void @_ZN11QCustomPlot6replotENS_15RefreshPriorityE(ptr noundef align 8 dereferenceable_or_null(513) %37, i32 noundef 2)
  call void @llvm.lifetime.end.p0(i64 8, ptr %6) #2
  call void @llvm.lifetime.end.p0(i64 8, ptr %5) #2
  ret void
}

; Function Attrs: mustprogress null_pointer_is_valid sspstrong uwtable
define void @_ZN13IOGraphDialog27on_actionZoomOutY_triggeredEv(ptr noundef align 8 dereferenceable_or_null(384) %0) #3 align 2 {
  %2 = alloca ptr, align 8
  store ptr %0, ptr %2, align 8
  %3 = load ptr, ptr %2, align 8
  call void @_ZN13IOGraphDialog9zoomYAxisEb(ptr noundef align 8 dereferenceable_or_null(384) %3, i1 noundef zeroext false)
  ret void
}